target datalayout = "e-m:e-p270:32:32-p271:32:32-p272:64:64-i64:64-i128:128-f80:128-n8:16:32:64-S128"
target triple = "x86_64-pc-linux-gnu"

%union.pthread_mutex_t = type { %struct.__pthread_mutex_s }
%struct.__pthread_mutex_s = type { i32, i32, i32, i32, i32, i16, i16, %struct.__pthread_internal_list }
%struct.__pthread_internal_list = type { ptr, ptr }
%struct.___itt_global = type { [8 x i8], i64, i64, i64, i64, i64, i64, %union.pthread_mutex_t, ptr, ptr, ptr, ptr, ptr, ptr, ptr, ptr, i32, ptr, i32, ptr, ptr }

@__itt_event_end_ptr__3_0 = hidden global ptr @__itt_event_end_init_3_0, align 8
@__itt_init_ittlib_ptr = internal global ptr @__itt_init_ittlib, align 8

; Function Attrs: nounwind uwtable
define internal i32 @__itt_event_end_init_3_0(i32 noundef %0) #0 {
  %2 = alloca i32, align 4
  %3 = alloca i32, align 4
  store i32 %0, ptr %3, align 4, !tbaa !24
  %4 = load volatile i64, ptr getelementptr inbounds nuw (%struct.___itt_global, ptr @__itt__ittapi_global, i32 0, i32 4), align 8, !tbaa !3
  %5 = icmp ne i64 %4, 0
  br i1 %5, label %12, label %6

6:                                                ; preds = %1
  %7 = load ptr, ptr getelementptr inbounds nuw (%struct.___itt_global, ptr @__itt__ittapi_global, i32 0, i32 13), align 8, !tbaa !20
  %8 = icmp eq ptr %7, null
  br i1 %8, label %9, label %12

9:                                                ; preds = %6
  %10 = load ptr, ptr @__itt_init_ittlib_ptr, align 8, !tbaa !21
  %11 = call i32 %10(ptr noundef null, i32 noundef -1)
  br label %12

12:                                               ; preds = %9, %6, %1
  %13 = load ptr, ptr @__itt_event_end_ptr__3_0, align 8, !tbaa !21
  %14 = icmp ne ptr %13, null
  br i1 %14, label %15, label %22

15:                                               ; preds = %12
  %16 = load ptr, ptr @__itt_event_end_ptr__3_0, align 8, !tbaa !21
  %17 = icmp ne ptr %16, @__itt_event_end_init_3_0
  br i1 %17, label %18, label %22

18:                                               ; preds = %15
  %19 = load ptr, ptr @__itt_event_end_ptr__3_0, align 8, !tbaa !21
  %20 = load i32, ptr %3, align 4, !tbaa !24
  %21 = call i32 %19(i32 noundef %20)
  store i32 %21, ptr %2, align 4
  br label %23

22:                                               ; preds = %15, %12
  store i32 0, ptr %2, align 4
  br label %23

23:                                               ; preds = %22, %18
  %24 = load i32, ptr %2, align 4
  ret i32 %24
}